target datalayout = "e-m:e-p270:32:32-p271:32:32-p272:64:64-i64:64-i128:128-f80:128-n8:16:32:64-S128"
target triple = "x86_64-unknown-linux-gnu"

%struct.timeval = type { i64, i64 }
%struct.timex = type { i32, i64, i64, i64, i64, i32, i64, i64, i64, %struct.timeval, i64, i64, i64, i32, i64, i64, i64, i64, i64, i32, [44 x i8] }
%struct.target_timeval = type { i64, i64 }
%struct.target_timex = type { i32, i64, i64, i64, i64, i32, i64, i64, i64, %struct.target_timeval, i64, i64, i64, i32, i64, i64, i64, i64, i64, i32, [44 x i8] }

; Function Attrs: nounwind sspstrong uwtable
define internal void @stq_he_p(ptr noundef %ptr, i64 noundef %v) #0 {
entry:
  %ptr.addr = alloca ptr, align 8
  %v.addr = alloca i64, align 8
  store ptr %ptr, ptr %ptr.addr, align 8
  store i64 %v, ptr %v.addr, align 8
  %0 = load ptr, ptr %ptr.addr, align 8
  call void @llvm.memcpy.p0.p0.i64(ptr align 1 %0, ptr align 8 %v.addr, i64 8, i1 false)
  ret void
}

; Function Attrs: nounwind sspstrong uwtable
define internal void @stl_he_p(ptr noundef %ptr, i32 noundef %v) #0 {
entry:
  %ptr.addr = alloca ptr, align 8
  %v.addr = alloca i32, align 4
  store ptr %ptr, ptr %ptr.addr, align 8
  store i32 %v, ptr %v.addr, align 4
  %0 = load ptr, ptr %ptr.addr, align 8
  call void @llvm.memcpy.p0.p0.i64(ptr align 1 %0, ptr align 4 %v.addr, i64 4, i1 false)
  ret void
}

; Function Attrs: nounwind sspstrong uwtable
define internal void @unlock_user(ptr noundef %host_ptr, i64 noundef %guest_addr, i64 noundef %len) #0 {
entry:
  %host_ptr.addr = alloca ptr, align 8
  %guest_addr.addr = alloca i64, align 8
  %len.addr = alloca i64, align 8
  store ptr %host_ptr, ptr %host_ptr.addr, align 8
  store i64 %guest_addr, ptr %guest_addr.addr, align 8
  store i64 %len, ptr %len.addr, align 8
  ret void
}

; Function Attrs: nounwind sspstrong uwtable
define internal void @stq_le_p(ptr noundef %ptr, i64 noundef %v) #0 {
entry:
  %ptr.addr = alloca ptr, align 8
  %v.addr = alloca i64, align 8
  store ptr %ptr, ptr %ptr.addr, align 8
  store i64 %v, ptr %v.addr, align 8
  %0 = load ptr, ptr %ptr.addr, align 8
  %1 = load i64, ptr %v.addr, align 8
  call void @stq_he_p(ptr noundef %0, i64 noundef %1)
  ret void
}

; Function Attrs: nounwind sspstrong uwtable
define internal void @stl_le_p(ptr noundef %ptr, i32 noundef %v) #0 {
entry:
  %ptr.addr = alloca ptr, align 8
  %v.addr = alloca i32, align 4
  store ptr %ptr, ptr %ptr.addr, align 8
  store i32 %v, ptr %v.addr, align 4
  %0 = load ptr, ptr %ptr.addr, align 8
  %1 = load i32, ptr %v.addr, align 4
  call void @stl_he_p(ptr noundef %0, i32 noundef %1)
  ret void
}

; Function Attrs: nounwind sspstrong uwtable
define internal i64 @host_to_target_timex(i64 noundef %target_addr, ptr noundef %host_tx) #0 {
entry:
  %retval = alloca i64, align 8
  %target_addr.addr = alloca i64, align 8
  %host_tx.addr = alloca ptr, align 8
  %target_tx = alloca ptr, align 8
  store i64 %target_addr, ptr %target_addr.addr, align 8
  store ptr %host_tx, ptr %host_tx.addr, align 8
  %0 = load i64, ptr %target_addr.addr, align 8
  %call = call ptr @lock_user(i32 noundef 3, i64 noundef %0, i64 noundef 208, i1 noundef zeroext false)
  store ptr %call, ptr %target_tx, align 8
  %tobool = icmp ne ptr %call, null
  br i1 %tobool, label %if.end, label %if.then

if.then:                                          ; preds = %entry
  store i64 -14, ptr %retval, align 8
  br label %return

if.end:                                           ; preds = %entry
  br label %do.body

do.body:                                          ; preds = %if.end
  %1 = load ptr, ptr %target_tx, align 8
  %modes = getelementptr inbounds %struct.target_timex, ptr %1, i32 0, i32 0
  %2 = load ptr, ptr %host_tx.addr, align 8
  %modes1 = getelementptr inbounds %struct.timex, ptr %2, i32 0, i32 0
  %3 = load i32, ptr %modes1, align 8
  call void @stl_le_p(ptr noundef %modes, i32 noundef %3)
  br label %do.end

do.end:                                           ; preds = %do.body
  br label %do.body2

do.body2:                                         ; preds = %do.end
  %4 = load ptr, ptr %target_tx, align 8
  %offset = getelementptr inbounds %struct.target_timex, ptr %4, i32 0, i32 1
  %5 = load ptr, ptr %host_tx.addr, align 8
  %offset3 = getelementptr inbounds %struct.timex, ptr %5, i32 0, i32 1
  %6 = load i64, ptr %offset3, align 8
  call void @stq_le_p(ptr noundef %offset, i64 noundef %6)
  br label %do.end4

do.end4:                                          ; preds = %do.body2
  br label %do.body5

do.body5:                                         ; preds = %do.end4
  %7 = load ptr, ptr %target_tx, align 8
  %freq = getelementptr inbounds %struct.target_timex, ptr %7, i32 0, i32 2
  %8 = load ptr, ptr %host_tx.addr, align 8
  %freq6 = getelementptr inbounds %struct.timex, ptr %8, i32 0, i32 2
  %9 = load i64, ptr %freq6, align 8
  call void @stq_le_p(ptr noundef %freq, i64 noundef %9)
  br label %do.end7

do.end7:                                          ; preds = %do.body5
  br label %do.body8

do.body8:                                         ; preds = %do.end7
  %10 = load ptr, ptr %target_tx, align 8
  %maxerror = getelementptr inbounds %struct.target_timex, ptr %10, i32 0, i32 3
  %11 = load ptr, ptr %host_tx.addr, align 8
  %maxerror9 = getelementptr inbounds %struct.timex, ptr %11, i32 0, i32 3
  %12 = load i64, ptr %maxerror9, align 8
  call void @stq_le_p(ptr noundef %maxerror, i64 noundef %12)
  br label %do.end10

do.end10:                                         ; preds = %do.body8
  br label %do.body11

do.body11:                                        ; preds = %do.end10
  %13 = load ptr, ptr %target_tx, align 8
  %esterror = getelementptr inbounds %struct.target_timex, ptr %13, i32 0, i32 4
  %14 = load ptr, ptr %host_tx.addr, align 8
  %esterror12 = getelementptr inbounds %struct.timex, ptr %14, i32 0, i32 4
  %15 = load i64, ptr %esterror12, align 8
  call void @stq_le_p(ptr noundef %esterror, i64 noundef %15)
  br label %do.end13

do.end13:                                         ; preds = %do.body11
  br label %do.body14

do.body14:                                        ; preds = %do.end13
  %16 = load ptr, ptr %target_tx, align 8
  %status = getelementptr inbounds %struct.target_timex, ptr %16, i32 0, i32 5
  %17 = load ptr, ptr %host_tx.addr, align 8
  %status15 = getelementptr inbounds %struct.timex, ptr %17, i32 0, i32 5
  %18 = load i32, ptr %status15, align 8
  call void @stl_le_p(ptr noundef %status, i32 noundef %18)
  br label %do.end16

do.end16:                                         ; preds = %do.body14
  br label %do.body17

do.body17:                                        ; preds = %do.end16
  %19 = load ptr, ptr %target_tx, align 8
  %constant = getelementptr inbounds %struct.target_timex, ptr %19, i32 0, i32 6
  %20 = load ptr, ptr %host_tx.addr, align 8
  %constant18 = getelementptr inbounds %struct.timex, ptr %20, i32 0, i32 6
  %21 = load i64, ptr %constant18, align 8
  call void @stq_le_p(ptr noundef %constant, i64 noundef %21)
  br label %do.end19

do.end19:                                         ; preds = %do.body17
  br label %do.body20

do.body20:                                        ; preds = %do.end19
  %22 = load ptr, ptr %target_tx, align 8
  %precision = getelementptr inbounds %struct.target_timex, ptr %22, i32 0, i32 7
  %23 = load ptr, ptr %host_tx.addr, align 8
  %precision21 = getelementptr inbounds %struct.timex, ptr %23, i32 0, i32 7
  %24 = load i64, ptr %precision21, align 8
  call void @stq_le_p(ptr noundef %precision, i64 noundef %24)
  br label %do.end22

do.end22:                                         ; preds = %do.body20
  br label %do.body23

do.body23:                                        ; preds = %do.end22
  %25 = load ptr, ptr %target_tx, align 8
  %tolerance = getelementptr inbounds %struct.target_timex, ptr %25, i32 0, i32 8
  %26 = load ptr, ptr %host_tx.addr, align 8
  %tolerance24 = getelementptr inbounds %struct.timex, ptr %26, i32 0, i32 8
  %27 = load i64, ptr %tolerance24, align 8
  call void @stq_le_p(ptr noundef %tolerance, i64 noundef %27)
  br label %do.end25

do.end25:                                         ; preds = %do.body23
  br label %do.body26

do.body26:                                        ; preds = %do.end25
  %28 = load ptr, ptr %target_tx, align 8
  %time = getelementptr inbounds %struct.target_timex, ptr %28, i32 0, i32 9
  %tv_sec = getelementptr inbounds %struct.target_timeval, ptr %time, i32 0, i32 0
  %29 = load ptr, ptr %host_tx.addr, align 8
  %time27 = getelementptr inbounds %struct.timex, ptr %29, i32 0, i32 9
  %tv_sec28 = getelementptr inbounds %struct.timeval, ptr %time27, i32 0, i32 0
  %30 = load i64, ptr %tv_sec28, align 8
  call void @stq_le_p(ptr noundef %tv_sec, i64 noundef %30)
  br label %do.end29

do.end29:                                         ; preds = %do.body26
  br label %do.body30

do.body30:                                        ; preds = %do.end29
  %31 = load ptr, ptr %target_tx, align 8
  %time31 = getelementptr inbounds %struct.target_timex, ptr %31, i32 0, i32 9
  %tv_usec = getelementptr inbounds %struct.target_timeval, ptr %time31, i32 0, i32 1
  %32 = load ptr, ptr %host_tx.addr, align 8
  %time32 = getelementptr inbounds %struct.timex, ptr %32, i32 0, i32 9
  %tv_usec33 = getelementptr inbounds %struct.timeval, ptr %time32, i32 0, i32 1
  %33 = load i64, ptr %tv_usec33, align 8
  call void @stq_le_p(ptr noundef %tv_usec, i64 noundef %33)
  br label %do.end34

do.end34:                                         ; preds = %do.body30
  br label %do.body35

do.body35:                                        ; preds = %do.end34
  %34 = load ptr, ptr %target_tx, align 8
  %tick = getelementptr inbounds %struct.target_timex, ptr %34, i32 0, i32 10
  %35 = load ptr, ptr %host_tx.addr, align 8
  %tick36 = getelementptr inbounds %struct.timex, ptr %35, i32 0, i32 10
  %36 = load i64, ptr %tick36, align 8
  call void @stq_le_p(ptr noundef %tick, i64 noundef %36)
  br label %do.end37

do.end37:                                         ; preds = %do.body35
  br label %do.body38

do.body38:                                        ; preds = %do.end37
  %37 = load ptr, ptr %target_tx, align 8
  %ppsfreq = getelementptr inbounds %struct.target_timex, ptr %37, i32 0, i32 11
  %38 = load ptr, ptr %host_tx.addr, align 8
  %ppsfreq39 = getelementptr inbounds %struct.timex, ptr %38, i32 0, i32 11
  %39 = load i64, ptr %ppsfreq39, align 8
  call void @stq_le_p(ptr noundef %ppsfreq, i64 noundef %39)
  br label %do.end40

do.end40:                                         ; preds = %do.body38
  br label %do.body41

do.body41:                                        ; preds = %do.end40
  %40 = load ptr, ptr %target_tx, align 8
  %jitter = getelementptr inbounds %struct.target_timex, ptr %40, i32 0, i32 12
  %41 = load ptr, ptr %host_tx.addr, align 8
  %jitter42 = getelementptr inbounds %struct.timex, ptr %41, i32 0, i32 12
  %42 = load i64, ptr %jitter42, align 8
  call void @stq_le_p(ptr noundef %jitter, i64 noundef %42)
  br label %do.end43

do.end43:                                         ; preds = %do.body41
  br label %do.body44

do.body44:                                        ; preds = %do.end43
  %43 = load ptr, ptr %target_tx, align 8
  %shift = getelementptr inbounds %struct.target_timex, ptr %43, i32 0, i32 13
  %44 = load ptr, ptr %host_tx.addr, align 8
  %shift45 = getelementptr inbounds %struct.timex, ptr %44, i32 0, i32 13
  %45 = load i32, ptr %shift45, align 8
  call void @stl_le_p(ptr noundef %shift, i32 noundef %45)
  br label %do.end46

do.end46:                                         ; preds = %do.body44
  br label %do.body47

do.body47:                                        ; preds = %do.end46
  %46 = load ptr, ptr %target_tx, align 8
  %stabil = getelementptr inbounds %struct.target_timex, ptr %46, i32 0, i32 14
  %47 = load ptr, ptr %host_tx.addr, align 8
  %stabil48 = getelementptr inbounds %struct.timex, ptr %47, i32 0, i32 14
  %48 = load i64, ptr %stabil48, align 8
  call void @stq_le_p(ptr noundef %stabil, i64 noundef %48)
  br label %do.end49

do.end49:                                         ; preds = %do.body47
  br label %do.body50

do.body50:                                        ; preds = %do.end49
  %49 = load ptr, ptr %target_tx, align 8
  %jitcnt = getelementptr inbounds %struct.target_timex, ptr %49, i32 0, i32 15
  %50 = load ptr, ptr %host_tx.addr, align 8
  %jitcnt51 = getelementptr inbounds %struct.timex, ptr %50, i32 0, i32 15
  %51 = load i64, ptr %jitcnt51, align 8
  call void @stq_le_p(ptr noundef %jitcnt, i64 noundef %51)
  br label %do.end52

do.end52:                                         ; preds = %do.body50
  br label %do.body53

do.body53:                                        ; preds = %do.end52
  %52 = load ptr, ptr %target_tx, align 8
  %calcnt = getelementptr inbounds %struct.target_timex, ptr %52, i32 0, i32 16
  %53 = load ptr, ptr %host_tx.addr, align 8
  %calcnt54 = getelementptr inbounds %struct.timex, ptr %53, i32 0, i32 16
  %54 = load i64, ptr %calcnt54, align 8
  call void @stq_le_p(ptr noundef %calcnt, i64 noundef %54)
  br label %do.end55

do.end55:                                         ; preds = %do.body53
  br label %do.body56

do.body56:                                        ; preds = %do.end55
  %55 = load ptr, ptr %target_tx, align 8
  %errcnt = getelementptr inbounds %struct.target_timex, ptr %55, i32 0, i32 17
  %56 = load ptr, ptr %host_tx.addr, align 8
  %errcnt57 = getelementptr inbounds %struct.timex, ptr %56, i32 0, i32 17
  %57 = load i64, ptr %errcnt57, align 8
  call void @stq_le_p(ptr noundef %errcnt, i64 noundef %57)
  br label %do.end58

do.end58:                                         ; preds = %do.body56
  br label %do.body59

do.body59:                                        ; preds = %do.end58
  %58 = load ptr, ptr %target_tx, align 8
  %stbcnt = getelementptr inbounds %struct.target_timex, ptr %58, i32 0, i32 18
  %59 = load ptr, ptr %host_tx.addr, align 8
  %stbcnt60 = getelementptr inbounds %struct.timex, ptr %59, i32 0, i32 18
  %60 = load i64, ptr %stbcnt60, align 8
  call void @stq_le_p(ptr noundef %stbcnt, i64 noundef %60)
  br label %do.end61

do.end61:                                         ; preds = %do.body59
  br label %do.body62

do.body62:                                        ; preds = %do.end61
  %61 = load ptr, ptr %target_tx, align 8
  %tai = getelementptr inbounds %struct.target_timex, ptr %61, i32 0, i32 19
  %62 = load ptr, ptr %host_tx.addr, align 8
  %tai63 = getelementptr inbounds %struct.timex, ptr %62, i32 0, i32 19
  %63 = load i32, ptr %tai63, align 8
  call void @stl_le_p(ptr noundef %tai, i32 noundef %63)
  br label %do.end64

do.end64:                                         ; preds = %do.body62
  %64 = load ptr, ptr %target_tx, align 8
  %65 = load i64, ptr %target_addr.addr, align 8
  call void @unlock_user(ptr noundef %64, i64 noundef %65, i64 noundef 208)
  store i64 0, ptr %retval, align 8
  br label %return

return:                                           ; preds = %do.end64, %if.then
  %66 = load i64, ptr %retval, align 8
  ret i64 %66
}