; Function Attrs: nounwind sspstrong uwtable
define internal fastcc range(i64 -14, 1) i64 @host_to_target_timex(i64 noundef %target_addr, ptr noundef nonnull readonly captures(none) %host_tx) unnamed_addr #2 {
entry:
  %call = tail call ptr @lock_user(i32 noundef 3, i64 noundef %target_addr, i64 noundef 208, i1 noundef zeroext false) #27
  %tobool.not = icmp eq ptr %call, null
  br i1 %tobool.not, label %return, label %do.body

do.body:                                          ; preds = %entry
  %0 = load i32, ptr %host_tx, align 8
  store i32 %0, ptr %call, align 1
  %offset = getelementptr inbounds nuw i8, ptr %call, i64 8
  %offset3 = getelementptr inbounds nuw i8, ptr %host_tx, i64 8
  %1 = load i64, ptr %offset3, align 8
  store i64 %1, ptr %offset, align 1
  %freq = getelementptr inbounds nuw i8, ptr %call, i64 16
  %freq6 = getelementptr inbounds nuw i8, ptr %host_tx, i64 16
  %2 = load i64, ptr %freq6, align 8
  store i64 %2, ptr %freq, align 1
  %maxerror = getelementptr inbounds nuw i8, ptr %call, i64 24
  %maxerror9 = getelementptr inbounds nuw i8, ptr %host_tx, i64 24
  %3 = load i64, ptr %maxerror9, align 8
  store i64 %3, ptr %maxerror, align 1
  %esterror = getelementptr inbounds nuw i8, ptr %call, i64 32
  %esterror12 = getelementptr inbounds nuw i8, ptr %host_tx, i64 32
  %4 = load i64, ptr %esterror12, align 8
  store i64 %4, ptr %esterror, align 1
  %status = getelementptr inbounds nuw i8, ptr %call, i64 40
  %status15 = getelementptr inbounds nuw i8, ptr %host_tx, i64 40
  %5 = load i32, ptr %status15, align 8
  store i32 %5, ptr %status, align 1
  %constant = getelementptr inbounds nuw i8, ptr %call, i64 48
  %constant18 = getelementptr inbounds nuw i8, ptr %host_tx, i64 48
  %6 = load i64, ptr %constant18, align 8
  store i64 %6, ptr %constant, align 1
  %precision = getelementptr inbounds nuw i8, ptr %call, i64 56
  %precision21 = getelementptr inbounds nuw i8, ptr %host_tx, i64 56
  %7 = load i64, ptr %precision21, align 8
  store i64 %7, ptr %precision, align 1
  %tolerance = getelementptr inbounds nuw i8, ptr %call, i64 64
  %tolerance24 = getelementptr inbounds nuw i8, ptr %host_tx, i64 64
  %8 = load i64, ptr %tolerance24, align 8
  store i64 %8, ptr %tolerance, align 1
  %time = getelementptr inbounds nuw i8, ptr %call, i64 72
  %time27 = getelementptr inbounds nuw i8, ptr %host_tx, i64 72
  %9 = load i64, ptr %time27, align 8
  store i64 %9, ptr %time, align 1
  %tv_usec = getelementptr inbounds nuw i8, ptr %call, i64 80
  %tv_usec33 = getelementptr inbounds nuw i8, ptr %host_tx, i64 80
  %10 = load i64, ptr %tv_usec33, align 8
  store i64 %10, ptr %tv_usec, align 1
  %tick = getelementptr inbounds nuw i8, ptr %call, i64 88
  %tick36 = getelementptr inbounds nuw i8, ptr %host_tx, i64 88
  %11 = load i64, ptr %tick36, align 8
  store i64 %11, ptr %tick, align 1
  %ppsfreq = getelementptr inbounds nuw i8, ptr %call, i64 96
  %ppsfreq39 = getelementptr inbounds nuw i8, ptr %host_tx, i64 96
  %12 = load i64, ptr %ppsfreq39, align 8
  store i64 %12, ptr %ppsfreq, align 1
  %jitter = getelementptr inbounds nuw i8, ptr %call, i64 104
  %jitter42 = getelementptr inbounds nuw i8, ptr %host_tx, i64 104
  %13 = load i64, ptr %jitter42, align 8
  store i64 %13, ptr %jitter, align 1
  %shift = getelementptr inbounds nuw i8, ptr %call, i64 112
  %shift45 = getelementptr inbounds nuw i8, ptr %host_tx, i64 112
  %14 = load i32, ptr %shift45, align 8
  store i32 %14, ptr %shift, align 1
  %stabil = getelementptr inbounds nuw i8, ptr %call, i64 120
  %stabil48 = getelementptr inbounds nuw i8, ptr %host_tx, i64 120
  %15 = load i64, ptr %stabil48, align 8
  store i64 %15, ptr %stabil, align 1
  %jitcnt = getelementptr inbounds nuw i8, ptr %call, i64 128
  %jitcnt51 = getelementptr inbounds nuw i8, ptr %host_tx, i64 128
  %16 = load i64, ptr %jitcnt51, align 8
  store i64 %16, ptr %jitcnt, align 1
  %calcnt = getelementptr inbounds nuw i8, ptr %call, i64 136
  %calcnt54 = getelementptr inbounds nuw i8, ptr %host_tx, i64 136
  %17 = load i64, ptr %calcnt54, align 8
  store i64 %17, ptr %calcnt, align 1
  %errcnt = getelementptr inbounds nuw i8, ptr %call, i64 144
  %errcnt57 = getelementptr inbounds nuw i8, ptr %host_tx, i64 144
  %18 = load i64, ptr %errcnt57, align 8
  store i64 %18, ptr %errcnt, align 1
  %stbcnt = getelementptr inbounds nuw i8, ptr %call, i64 152
  %stbcnt60 = getelementptr inbounds nuw i8, ptr %host_tx, i64 152
  %19 = load i64, ptr %stbcnt60, align 8
  store i64 %19, ptr %stbcnt, align 1
  %tai = getelementptr inbounds nuw i8, ptr %call, i64 160
  %tai63 = getelementptr inbounds nuw i8, ptr %host_tx, i64 160
  %20 = load i32, ptr %tai63, align 8
  store i32 %20, ptr %tai, align 1
  br label %return

return:                                           ; preds = %entry, %do.body
  %retval.0 = phi i64 [ 0, %do.body ], [ -14, %entry ]
  ret i64 %retval.0
}